target datalayout = "e-m:e-p270:32:32-p271:32:32-p272:64:64-i64:64-i128:128-f80:128-n8:16:32:64-S128"
target triple = "x86_64-pc-linux-gnu"

; Function Attrs: nounwind uwtable
define dso_local ptr @slurm_xcalloc(i64 noundef %0, i64 noundef %1, i1 noundef zeroext %2, i1 noundef zeroext %3, ptr noundef %4, i32 noundef %5, ptr noundef %6) #0 {
  %8 = alloca ptr, align 8
  %9 = alloca i64, align 8
  %10 = alloca i64, align 8
  %11 = alloca i8, align 1
  %12 = alloca i8, align 1
  %13 = alloca ptr, align 8
  %14 = alloca i32, align 4
  %15 = alloca ptr, align 8
  %16 = alloca i64, align 8
  %17 = alloca i64, align 8
  %18 = alloca ptr, align 8
  %19 = alloca i32, align 4
  store i64 %0, ptr %9, align 8
  store i64 %1, ptr %10, align 8
  %20 = zext i1 %2 to i8
  store i8 %20, ptr %11, align 1
  %21 = zext i1 %3 to i8
  store i8 %21, ptr %12, align 1
  store ptr %4, ptr %13, align 8
  store i32 %5, ptr %14, align 4
  store ptr %6, ptr %15, align 8
  call void @llvm.lifetime.start.p0(i64 8, ptr %16) #9
  call void @llvm.lifetime.start.p0(i64 8, ptr %17) #9
  call void @llvm.lifetime.start.p0(i64 8, ptr %18) #9
  %22 = load i64, ptr %10, align 8
  %23 = icmp ne i64 %22, 0
  br i1 %23, label %24, label %27

24:                                               ; preds = %7
  %25 = load i64, ptr %9, align 8
  %26 = icmp ne i64 %25, 0
  br i1 %26, label %28, label %27

27:                                               ; preds = %24, %7
  store ptr null, ptr %8, align 8
  store i32 1, ptr %19, align 4
  br label %82

28:                                               ; preds = %24
  %29 = load i64, ptr %9, align 8
  %30 = icmp ne i64 %29, 1
  br i1 %30, label %31, label %45

31:                                               ; preds = %28
  %32 = load i64, ptr %9, align 8
  %33 = load i64, ptr %10, align 8
  %34 = udiv i64 -1, %33
  %35 = udiv i64 %34, 4
  %36 = icmp ugt i64 %32, %35
  br i1 %36, label %37, label %45

37:                                               ; preds = %31
  %38 = load i8, ptr %12, align 1, !range !8, !noundef !9
  %39 = trunc i8 %38 to i1
  br i1 %39, label %40, label %41

40:                                               ; preds = %37
  store ptr null, ptr %8, align 8
  store i32 1, ptr %19, align 4
  br label %82

41:                                               ; preds = %37
  %42 = load ptr, ptr %13, align 8
  %43 = load i32, ptr %14, align 4
  %44 = load ptr, ptr %15, align 8
  call void @log_oom(ptr noundef %42, i32 noundef %43, ptr noundef %44)
  call void @abort() #10
  unreachable

45:                                               ; preds = %31, %28
  %46 = load i64, ptr %9, align 8
  %47 = load i64, ptr %10, align 8
  %48 = mul i64 %46, %47
  store i64 %48, ptr %17, align 8
  %49 = load i64, ptr %17, align 8
  %50 = add i64 %49, 16
  store i64 %50, ptr %16, align 8
  %51 = load i8, ptr %11, align 1, !range !8, !noundef !9
  %52 = trunc i8 %51 to i1
  br i1 %52, label %53, label %56

53:                                               ; preds = %45
  %54 = load i64, ptr %16, align 8
  %55 = call noalias ptr @calloc(i64 noundef 1, i64 noundef %54) #11
  store ptr %55, ptr %18, align 8
  br label %59

56:                                               ; preds = %45
  %57 = load i64, ptr %16, align 8
  %58 = call noalias ptr @malloc(i64 noundef %57) #12
  store ptr %58, ptr %18, align 8
  br label %59

59:                                               ; preds = %56, %53
  %60 = load ptr, ptr %18, align 8
  %61 = icmp ne ptr %60, null
  br i1 %61, label %66, label %62

62:                                               ; preds = %59
  %63 = load i8, ptr %12, align 1, !range !8, !noundef !9
  %64 = trunc i8 %63 to i1
  br i1 %64, label %65, label %66

65:                                               ; preds = %62
  store ptr null, ptr %8, align 8
  store i32 1, ptr %19, align 4
  br label %82

66:                                               ; preds = %62, %59
  %67 = load ptr, ptr %18, align 8
  %68 = icmp ne ptr %67, null
  br i1 %68, label %73, label %69

69:                                               ; preds = %66
  %70 = load ptr, ptr %13, align 8
  %71 = load i32, ptr %14, align 4
  %72 = load ptr, ptr %15, align 8
  call void @log_oom(ptr noundef %70, i32 noundef %71, ptr noundef %72)
  call void @abort() #10
  unreachable

73:                                               ; preds = %66
  br label %74

74:                                               ; preds = %73
  %75 = load ptr, ptr %18, align 8
  %76 = getelementptr inbounds i64, ptr %75, i64 0
  store i64 66, ptr %76, align 8
  %77 = load i64, ptr %17, align 8
  %78 = load ptr, ptr %18, align 8
  %79 = getelementptr inbounds i64, ptr %78, i64 1
  store i64 %77, ptr %79, align 8
  %80 = load ptr, ptr %18, align 8
  %81 = getelementptr inbounds i64, ptr %80, i64 2
  store ptr %81, ptr %8, align 8
  store i32 1, ptr %19, align 4
  br label %82

82:                                               ; preds = %74, %65, %40, %27
  call void @llvm.lifetime.end.p0(i64 8, ptr %18) #9
  call void @llvm.lifetime.end.p0(i64 8, ptr %17) #9
  call void @llvm.lifetime.end.p0(i64 8, ptr %16) #9
  %83 = load ptr, ptr %8, align 8
  ret ptr %83
}