; Function Attrs: nounwind uwtable
define dso_local ptr @slurm_xcalloc(i64 noundef %0, i64 noundef %1, i1 noundef zeroext %2, i1 noundef zeroext %3, ptr noundef %4, i32 noundef %5, ptr noundef %6) local_unnamed_addr #2 {
  %8 = icmp ne i64 %1, 0
  %9 = icmp ne i64 %0, 0
  %or.cond = and i1 %9, %8
  br i1 %or.cond, label %10, label %30

10:                                               ; preds = %7
  %.not = icmp eq i64 %0, 1
  br i1 %.not, label %17, label %11

11:                                               ; preds = %10
  %12 = udiv i64 -1, %1
  %13 = lshr i64 %12, 2
  %14 = icmp ugt i64 %0, %13
  br i1 %14, label %15, label %17

15:                                               ; preds = %11
  br i1 %3, label %30, label %16

16:                                               ; preds = %15
  tail call void @log_oom(ptr noundef %4, i32 noundef %5, ptr noundef %6) #11
  tail call void @abort() #12
  unreachable

17:                                               ; preds = %11, %10
  %18 = mul i64 %1, %0
  %19 = add i64 %18, 16
  br i1 %2, label %20, label %22

20:                                               ; preds = %17
  %21 = tail call noalias ptr @calloc(i64 noundef 1, i64 noundef %19) #13
  br label %24

22:                                               ; preds = %17
  %23 = tail call noalias ptr @malloc(i64 noundef %19) #14
  br label %24

24:                                               ; preds = %22, %20
  %.0 = phi ptr [ %21, %20 ], [ %23, %22 ]
  %.not29 = icmp eq ptr %.0, null
  %brmerge.not = and i1 %3, %.not29
  br i1 %brmerge.not, label %30, label %25

25:                                               ; preds = %24
  br i1 %.not29, label %26, label %27

26:                                               ; preds = %25
  tail call void @log_oom(ptr noundef %4, i32 noundef %5, ptr noundef %6) #11
  tail call void @abort() #12
  unreachable

27:                                               ; preds = %25
  store i64 66, ptr %.0, align 8
  %28 = getelementptr inbounds nuw i8, ptr %.0, i64 8
  store i64 %18, ptr %28, align 8
  %29 = getelementptr inbounds nuw i8, ptr %.0, i64 16
  br label %30

30:                                               ; preds = %24, %15, %7, %27
  %.026 = phi ptr [ %29, %27 ], [ null, %7 ], [ null, %15 ], [ null, %24 ]
  ret ptr %.026
}